; ModuleID = 'source-C-CXX/30/1690.c'
source_filename = "source-C-CXX/30/1690.c"
target datalayout = "e-m:e-p270:32:32-p271:32:32-p272:64:64-i64:64-f80:128-n8:16:32:64-S128"
target triple = "x86_64-pc-linux-gnu"

%struct.student = type { [10 x i8], [100 x i8], %struct.student*, %struct.student* }

@.str = private unnamed_addr constant [3 x i8] c"%s\00", align 1
@.str.1 = private unnamed_addr constant [4 x i8] c"end\00", align 1
@.str.2 = private unnamed_addr constant [6 x i8] c"%s%s\0A\00", align 1

; Function Attrs: nounwind sspstrong uwtable
define dso_local void @main() local_unnamed_addr #0 {
  %1 = tail call noalias align 16 dereferenceable_or_null(100) i8* @malloc(i64 100) #5
  %2 = bitcast i8* %1 to %struct.student*
  %3 = getelementptr inbounds %struct.student, %struct.student* %2, i64 0, i32 0, i64 0
  %4 = tail call i32 (i8*, ...) @__isoc99_scanf(i8* getelementptr inbounds ([3 x i8], [3 x i8]* @.str, i64 0, i64 0), i8* %3)
  %5 = tail call i32 @strcmp(i8* noundef nonnull dereferenceable(1) %3, i8* noundef nonnull dereferenceable(4) getelementptr inbounds ([4 x i8], [4 x i8]* @.str.1, i64 0, i64 0)) #6
  %6 = icmp eq i32 %5, 0
  br i1 %6, label %33, label %7

7:                                                ; preds = %0, %7
  %8 = phi i32 [ %11, %7 ], [ 1, %0 ]
  %9 = phi %struct.student* [ %10, %7 ], [ %2, %0 ]
  %10 = phi %struct.student* [ %16, %7 ], [ %2, %0 ]
  %11 = add nuw nsw i32 %8, 1
  %12 = getelementptr inbounds %struct.student, %struct.student* %10, i64 0, i32 1, i64 0
  %13 = tail call i32 (i8*, ...) bitcast (i32 (...)* @gets to i32 (i8*, ...)*)(i8* nonnull %12) #5
  %14 = getelementptr inbounds %struct.student, %struct.student* %10, i64 0, i32 3
  store %struct.student* %9, %struct.student** %14, align 8, !tbaa !5
  %15 = tail call noalias align 16 dereferenceable_or_null(100) i8* @malloc(i64 100) #5
  %16 = bitcast i8* %15 to %struct.student*
  %17 = getelementptr inbounds %struct.student, %struct.student* %10, i64 0, i32 2
  %18 = bitcast %struct.student** %17 to i8**
  store i8* %15, i8** %18, align 8, !tbaa !10
  %19 = getelementptr inbounds %struct.student, %struct.student* %16, i64 0, i32 0, i64 0
  %20 = tail call i32 (i8*, ...) @__isoc99_scanf(i8* getelementptr inbounds ([3 x i8], [3 x i8]* @.str, i64 0, i64 0), i8* %19)
  %21 = tail call i32 @strcmp(i8* noundef nonnull dereferenceable(1) %19, i8* noundef nonnull dereferenceable(4) getelementptr inbounds ([4 x i8], [4 x i8]* @.str.1, i64 0, i64 0)) #6
  %22 = icmp eq i32 %21, 0
  br i1 %22, label %23, label %7, !llvm.loop !11

23:                                               ; preds = %7, %23
  %24 = phi i32 [ %31, %23 ], [ %11, %7 ]
  %25 = phi %struct.student* [ %30, %23 ], [ %10, %7 ]
  %26 = getelementptr inbounds %struct.student, %struct.student* %25, i64 0, i32 0, i64 0
  %27 = getelementptr inbounds %struct.student, %struct.student* %25, i64 0, i32 1, i64 0
  %28 = tail call i32 (i8*, ...) @printf(i8* nonnull dereferenceable(1) getelementptr inbounds ([6 x i8], [6 x i8]* @.str.2, i64 0, i64 0), i8* %26, i8* nonnull %27)
  %29 = getelementptr inbounds %struct.student, %struct.student* %25, i64 0, i32 3
  %30 = load %struct.student*, %struct.student** %29, align 8, !tbaa !5
  %31 = add nsw i32 %24, -1
  %32 = icmp sgt i32 %24, 2
  br i1 %32, label %23, label %33, !llvm.loop !13

33:                                               ; preds = %23, %0
  ret void
}

; Function Attrs: inaccessiblememonly mustprogress nofree nounwind willreturn
declare noalias noundef align 16 i8* @malloc(i64 noundef) local_unnamed_addr #1

; Function Attrs: nofree nounwind
declare noundef i32 @__isoc99_scanf(i8* nocapture noundef readonly, ...) local_unnamed_addr #2

; Function Attrs: argmemonly mustprogress nofree nounwind readonly willreturn
declare i32 @strcmp(i8* nocapture, i8* nocapture) local_unnamed_addr #3

declare i32 @gets(...) local_unnamed_addr #4

; Function Attrs: nofree nounwind
declare noundef i32 @printf(i8* nocapture noundef readonly, ...) local_unnamed_addr #2


!llvm.module.flags = !{!0, !1, !2, !3}
!llvm.ident = !{!4}

!0 = !{i32 1, !"wchar_size", i32 4}
!1 = !{i32 7, !"PIC Level", i32 2}
!2 = !{i32 7, !"PIE Level", i32 2}
!3 = !{i32 7, !"uwtable", i32 1}
!4 = !{!"clang version 13.0.0"}
!5 = !{!6, !9, i64 120}
!6 = !{!"student", !7, i64 0, !7, i64 10, !9, i64 112, !9, i64 120}
!7 = !{!"omnipotent char", !8, i64 0}
!8 = !{!"Simple C/C++ TBAA"}
!9 = !{!"any pointer", !7, i64 0}
!10 = !{!6, !9, i64 112}
!11 = distinct !{!11, !12}
!12 = !{!"llvm.loop.mustprogress"}
!13 = distinct !{!13, !12}
